target datalayout = "e-m:e-p270:32:32-p271:32:32-p272:64:64-i64:64-i128:128-f80:128-n8:16:32:64-S128"
target triple = "x86_64-pc-linux-gnu"

%struct._zend_strtod_bigint = type { ptr, i32, i32, i32, i32, [1 x i32] }
%union.U = type { double }

; Function Attrs: nounwind uwtable
define internal i32 @hi0bits(i32 noundef %0) #0 {
  %2 = alloca i32, align 4
  %3 = alloca i32, align 4
  %4 = alloca i32, align 4
  %5 = alloca i32, align 4
  store i32 %0, ptr %3, align 4, !tbaa !4
  call void @llvm.lifetime.start.p0(i64 4, ptr %4) #7
  store i32 0, ptr %4, align 4, !tbaa !4
  %6 = load i32, ptr %3, align 4, !tbaa !4
  %7 = and i32 %6, -65536
  %8 = icmp ne i32 %7, 0
  br i1 %8, label %12, label %9

9:                                                ; preds = %1
  store i32 16, ptr %4, align 4, !tbaa !4
  %10 = load i32, ptr %3, align 4, !tbaa !4
  %11 = shl i32 %10, 16
  store i32 %11, ptr %3, align 4, !tbaa !4
  br label %12

12:                                               ; preds = %9, %1
  %13 = load i32, ptr %3, align 4, !tbaa !4
  %14 = and i32 %13, -16777216
  %15 = icmp ne i32 %14, 0
  br i1 %15, label %21, label %16

16:                                               ; preds = %12
  %17 = load i32, ptr %4, align 4, !tbaa !4
  %18 = add nsw i32 %17, 8
  store i32 %18, ptr %4, align 4, !tbaa !4
  %19 = load i32, ptr %3, align 4, !tbaa !4
  %20 = shl i32 %19, 8
  store i32 %20, ptr %3, align 4, !tbaa !4
  br label %21

21:                                               ; preds = %16, %12
  %22 = load i32, ptr %3, align 4, !tbaa !4
  %23 = and i32 %22, -268435456
  %24 = icmp ne i32 %23, 0
  br i1 %24, label %30, label %25

25:                                               ; preds = %21
  %26 = load i32, ptr %4, align 4, !tbaa !4
  %27 = add nsw i32 %26, 4
  store i32 %27, ptr %4, align 4, !tbaa !4
  %28 = load i32, ptr %3, align 4, !tbaa !4
  %29 = shl i32 %28, 4
  store i32 %29, ptr %3, align 4, !tbaa !4
  br label %30

30:                                               ; preds = %25, %21
  %31 = load i32, ptr %3, align 4, !tbaa !4
  %32 = and i32 %31, -1073741824
  %33 = icmp ne i32 %32, 0
  br i1 %33, label %39, label %34

34:                                               ; preds = %30
  %35 = load i32, ptr %4, align 4, !tbaa !4
  %36 = add nsw i32 %35, 2
  store i32 %36, ptr %4, align 4, !tbaa !4
  %37 = load i32, ptr %3, align 4, !tbaa !4
  %38 = shl i32 %37, 2
  store i32 %38, ptr %3, align 4, !tbaa !4
  br label %39

39:                                               ; preds = %34, %30
  %40 = load i32, ptr %3, align 4, !tbaa !4
  %41 = and i32 %40, -2147483648
  %42 = icmp ne i32 %41, 0
  br i1 %42, label %51, label %43

43:                                               ; preds = %39
  %44 = load i32, ptr %4, align 4, !tbaa !4
  %45 = add nsw i32 %44, 1
  store i32 %45, ptr %4, align 4, !tbaa !4
  %46 = load i32, ptr %3, align 4, !tbaa !4
  %47 = and i32 %46, 1073741824
  %48 = icmp ne i32 %47, 0
  br i1 %48, label %50, label %49

49:                                               ; preds = %43
  store i32 32, ptr %2, align 4
  store i32 1, ptr %5, align 4
  br label %53

50:                                               ; preds = %43
  br label %51

51:                                               ; preds = %50, %39
  %52 = load i32, ptr %4, align 4, !tbaa !4
  store i32 %52, ptr %2, align 4
  store i32 1, ptr %5, align 4
  br label %53

53:                                               ; preds = %51, %49
  call void @llvm.lifetime.end.p0(i64 4, ptr %4) #7
  %54 = load i32, ptr %2, align 4
  ret i32 %54
}

; Function Attrs: nounwind uwtable
define internal double @b2d(ptr noundef %0, ptr noundef %1) #0 {
  %3 = alloca ptr, align 8
  %4 = alloca ptr, align 8
  %5 = alloca ptr, align 8
  %6 = alloca ptr, align 8
  %7 = alloca i32, align 4
  %8 = alloca i32, align 4
  %9 = alloca i32, align 4
  %10 = alloca i32, align 4
  %11 = alloca %union.U, align 8
  store ptr %0, ptr %3, align 8, !tbaa !11
  store ptr %1, ptr %4, align 8, !tbaa !69
  call void @llvm.lifetime.start.p0(i64 8, ptr %5) #7
  call void @llvm.lifetime.start.p0(i64 8, ptr %6) #7
  call void @llvm.lifetime.start.p0(i64 4, ptr %7) #7
  call void @llvm.lifetime.start.p0(i64 4, ptr %8) #7
  call void @llvm.lifetime.start.p0(i64 4, ptr %9) #7
  call void @llvm.lifetime.start.p0(i64 4, ptr %10) #7
  call void @llvm.lifetime.start.p0(i64 8, ptr %11) #7
  %12 = load ptr, ptr %3, align 8, !tbaa !11
  %13 = getelementptr inbounds nuw %struct._zend_strtod_bigint, ptr %12, i32 0, i32 5
  %14 = getelementptr inbounds [1 x i32], ptr %13, i64 0, i64 0
  store ptr %14, ptr %6, align 8, !tbaa !69
  %15 = load ptr, ptr %6, align 8, !tbaa !69
  %16 = load ptr, ptr %3, align 8, !tbaa !11
  %17 = getelementptr inbounds nuw %struct._zend_strtod_bigint, ptr %16, i32 0, i32 4
  %18 = load i32, ptr %17, align 4, !tbaa !64
  %19 = sext i32 %18 to i64
  %20 = getelementptr inbounds i32, ptr %15, i64 %19
  store ptr %20, ptr %5, align 8, !tbaa !69
  %21 = load ptr, ptr %5, align 8, !tbaa !69
  %22 = getelementptr inbounds i32, ptr %21, i32 -1
  store ptr %22, ptr %5, align 8, !tbaa !69
  %23 = load i32, ptr %22, align 4, !tbaa !4
  store i32 %23, ptr %8, align 4, !tbaa !4
  %24 = load i32, ptr %8, align 4, !tbaa !4
  %25 = call i32 @hi0bits(i32 noundef %24)
  store i32 %25, ptr %10, align 4, !tbaa !4
  %26 = load i32, ptr %10, align 4, !tbaa !4
  %27 = sub nsw i32 32, %26
  %28 = load ptr, ptr %4, align 8, !tbaa !69
  store i32 %27, ptr %28, align 4, !tbaa !4
  %29 = load i32, ptr %10, align 4, !tbaa !4
  %30 = icmp slt i32 %29, 11
  br i1 %30, label %31, label %58

31:                                               ; preds = %2
  %32 = load i32, ptr %8, align 4, !tbaa !4
  %33 = load i32, ptr %10, align 4, !tbaa !4
  %34 = sub nsw i32 11, %33
  %35 = lshr i32 %32, %34
  %36 = or i32 1072693248, %35
  %37 = getelementptr inbounds [2 x i32], ptr %11, i64 0, i64 1
  store i32 %36, ptr %37, align 4, !tbaa !54
  %38 = load ptr, ptr %5, align 8, !tbaa !69
  %39 = load ptr, ptr %6, align 8, !tbaa !69
  %40 = icmp ugt ptr %38, %39
  br i1 %40, label %41, label %45

41:                                               ; preds = %31
  %42 = load ptr, ptr %5, align 8, !tbaa !69
  %43 = getelementptr inbounds i32, ptr %42, i32 -1
  store ptr %43, ptr %5, align 8, !tbaa !69
  %44 = load i32, ptr %43, align 4, !tbaa !4
  br label %46

45:                                               ; preds = %31
  br label %46

46:                                               ; preds = %45, %41
  %47 = phi i32 [ %44, %41 ], [ 0, %45 ]
  store i32 %47, ptr %7, align 4, !tbaa !4
  %48 = load i32, ptr %8, align 4, !tbaa !4
  %49 = load i32, ptr %10, align 4, !tbaa !4
  %50 = add nsw i32 21, %49
  %51 = shl i32 %48, %50
  %52 = load i32, ptr %7, align 4, !tbaa !4
  %53 = load i32, ptr %10, align 4, !tbaa !4
  %54 = sub nsw i32 11, %53
  %55 = lshr i32 %52, %54
  %56 = or i32 %51, %55
  %57 = getelementptr inbounds [2 x i32], ptr %11, i64 0, i64 0
  store i32 %56, ptr %57, align 8, !tbaa !54
  br label %109

58:                                               ; preds = %2
  %59 = load ptr, ptr %5, align 8, !tbaa !69
  %60 = load ptr, ptr %6, align 8, !tbaa !69
  %61 = icmp ugt ptr %59, %60
  br i1 %61, label %62, label %66

62:                                               ; preds = %58
  %63 = load ptr, ptr %5, align 8, !tbaa !69
  %64 = getelementptr inbounds i32, ptr %63, i32 -1
  store ptr %64, ptr %5, align 8, !tbaa !69
  %65 = load i32, ptr %64, align 4, !tbaa !4
  br label %67

66:                                               ; preds = %58
  br label %67

67:                                               ; preds = %66, %62
  %68 = phi i32 [ %65, %62 ], [ 0, %66 ]
  store i32 %68, ptr %9, align 4, !tbaa !4
  %69 = load i32, ptr %10, align 4, !tbaa !4
  %70 = sub nsw i32 %69, 11
  store i32 %70, ptr %10, align 4, !tbaa !4
  %71 = icmp ne i32 %70, 0
  br i1 %71, label %72, label %102

72:                                               ; preds = %67
  %73 = load i32, ptr %8, align 4, !tbaa !4
  %74 = load i32, ptr %10, align 4, !tbaa !4
  %75 = shl i32 %73, %74
  %76 = or i32 1072693248, %75
  %77 = load i32, ptr %9, align 4, !tbaa !4
  %78 = load i32, ptr %10, align 4, !tbaa !4
  %79 = sub nsw i32 32, %78
  %80 = lshr i32 %77, %79
  %81 = or i32 %76, %80
  %82 = getelementptr inbounds [2 x i32], ptr %11, i64 0, i64 1
  store i32 %81, ptr %82, align 4, !tbaa !54
  %83 = load ptr, ptr %5, align 8, !tbaa !69
  %84 = load ptr, ptr %6, align 8, !tbaa !69
  %85 = icmp ugt ptr %83, %84
  br i1 %85, label %86, label %90

86:                                               ; preds = %72
  %87 = load ptr, ptr %5, align 8, !tbaa !69
  %88 = getelementptr inbounds i32, ptr %87, i32 -1
  store ptr %88, ptr %5, align 8, !tbaa !69
  %89 = load i32, ptr %88, align 4, !tbaa !4
  br label %91

90:                                               ; preds = %72
  br label %91

91:                                               ; preds = %90, %86
  %92 = phi i32 [ %89, %86 ], [ 0, %90 ]
  store i32 %92, ptr %8, align 4, !tbaa !4
  %93 = load i32, ptr %9, align 4, !tbaa !4
  %94 = load i32, ptr %10, align 4, !tbaa !4
  %95 = shl i32 %93, %94
  %96 = load i32, ptr %8, align 4, !tbaa !4
  %97 = load i32, ptr %10, align 4, !tbaa !4
  %98 = sub nsw i32 32, %97
  %99 = lshr i32 %96, %98
  %100 = or i32 %95, %99
  %101 = getelementptr inbounds [2 x i32], ptr %11, i64 0, i64 0
  store i32 %100, ptr %101, align 8, !tbaa !54
  br label %108

102:                                              ; preds = %67
  %103 = load i32, ptr %8, align 4, !tbaa !4
  %104 = or i32 1072693248, %103
  %105 = getelementptr inbounds [2 x i32], ptr %11, i64 0, i64 1
  store i32 %104, ptr %105, align 4, !tbaa !54
  %106 = load i32, ptr %9, align 4, !tbaa !4
  %107 = getelementptr inbounds [2 x i32], ptr %11, i64 0, i64 0
  store i32 %106, ptr %107, align 8, !tbaa !54
  br label %108

108:                                              ; preds = %102, %91
  br label %109

109:                                              ; preds = %108, %46
  %110 = load double, ptr %11, align 8, !tbaa !54
  call void @llvm.lifetime.end.p0(i64 8, ptr %11) #7
  call void @llvm.lifetime.end.p0(i64 4, ptr %10) #7
  call void @llvm.lifetime.end.p0(i64 4, ptr %9) #7
  call void @llvm.lifetime.end.p0(i64 4, ptr %8) #7
  call void @llvm.lifetime.end.p0(i64 4, ptr %7) #7
  call void @llvm.lifetime.end.p0(i64 8, ptr %6) #7
  call void @llvm.lifetime.end.p0(i64 8, ptr %5) #7
  ret double %110
}